target datalayout = "e-m:e-p270:32:32-p271:32:32-p272:64:64-i64:64-i128:128-f80:128-n8:16:32:64-S128"
target triple = "x86_64-pc-linux-gnu"

%struct.InvalMessageArray = type { ptr, i32 }
%struct.RelFileLocator = type { i32, i32, i32 }
%struct.SharedInvalSmgrMsg = type { i8, i8, i16, %struct.RelFileLocator }
%struct.TransInvalidationInfo = type { %struct.InvalidationInfo, %struct.InvalidationMsgsGroup, ptr, i32 }
%struct.InvalidationInfo = type { %struct.InvalidationMsgsGroup, i8 }
%struct.InvalidationMsgsGroup = type { [2 x i32], [2 x i32] }
%union.SharedInvalidationMessage = type { %struct.SharedInvalSmgrMsg }

@transInvalInfo = internal global ptr null, align 8
@InvalMessageArrays = internal global [2 x %struct.InvalMessageArray] zeroinitializer, align 16
@inplaceInvalInfo = internal global ptr null, align 8

; Function Attrs: nounwind uwtable
define internal void @AppendInvalidationMessageSubGroup(ptr noundef %0, ptr noundef %1, i32 noundef %2) #0 {
  %4 = alloca ptr, align 8
  %5 = alloca ptr, align 8
  %6 = alloca i32, align 4
  store ptr %0, ptr %4, align 8
  store ptr %1, ptr %5, align 8
  store i32 %2, ptr %6, align 4
  %7 = load ptr, ptr %5, align 8
  %8 = getelementptr inbounds nuw %struct.InvalidationMsgsGroup, ptr %7, i32 0, i32 1
  %9 = load i32, ptr %6, align 4
  %10 = sext i32 %9 to i64
  %11 = getelementptr inbounds [2 x i32], ptr %8, i64 0, i64 %10
  %12 = load i32, ptr %11, align 4
  %13 = load ptr, ptr %4, align 8
  %14 = getelementptr inbounds nuw %struct.InvalidationMsgsGroup, ptr %13, i32 0, i32 1
  %15 = load i32, ptr %6, align 4
  %16 = sext i32 %15 to i64
  %17 = getelementptr inbounds [2 x i32], ptr %14, i64 0, i64 %16
  store i32 %12, ptr %17, align 4
  br label %18

18:                                               ; preds = %3
  %19 = load ptr, ptr %4, align 8
  %20 = getelementptr inbounds nuw %struct.InvalidationMsgsGroup, ptr %19, i32 0, i32 1
  %21 = load i32, ptr %6, align 4
  %22 = sext i32 %21 to i64
  %23 = getelementptr inbounds [2 x i32], ptr %20, i64 0, i64 %22
  %24 = load i32, ptr %23, align 4
  %25 = load ptr, ptr %5, align 8
  %26 = getelementptr inbounds nuw %struct.InvalidationMsgsGroup, ptr %25, i32 0, i32 1
  %27 = load i32, ptr %6, align 4
  %28 = sext i32 %27 to i64
  %29 = getelementptr inbounds [2 x i32], ptr %26, i64 0, i64 %28
  store i32 %24, ptr %29, align 4
  %30 = load ptr, ptr %5, align 8
  %31 = getelementptr inbounds nuw %struct.InvalidationMsgsGroup, ptr %30, i32 0, i32 0
  %32 = load i32, ptr %6, align 4
  %33 = sext i32 %32 to i64
  %34 = getelementptr inbounds [2 x i32], ptr %31, i64 0, i64 %33
  store i32 %24, ptr %34, align 4
  br label %35

35:                                               ; preds = %18
  ret void
}

; Function Attrs: nounwind uwtable
define internal void @ProcessInvalidationMessages(ptr noundef %0, ptr noundef %1) #0 {
  %3 = alloca ptr, align 8
  %4 = alloca ptr, align 8
  %5 = alloca i32, align 4
  %6 = alloca i32, align 4
  %7 = alloca ptr, align 8
  %8 = alloca i32, align 4
  %9 = alloca i32, align 4
  %10 = alloca ptr, align 8
  store ptr %0, ptr %3, align 8
  store ptr %1, ptr %4, align 8
  br label %11

11:                                               ; preds = %2
  call void @llvm.lifetime.start.p0(i64 4, ptr %5) #7
  %12 = load ptr, ptr %3, align 8
  %13 = getelementptr inbounds nuw %struct.InvalidationMsgsGroup, ptr %12, i32 0, i32 0
  %14 = getelementptr inbounds [2 x i32], ptr %13, i64 0, i64 0
  %15 = load i32, ptr %14, align 4
  store i32 %15, ptr %5, align 4
  call void @llvm.lifetime.start.p0(i64 4, ptr %6) #7
  %16 = load ptr, ptr %3, align 8
  %17 = getelementptr inbounds nuw %struct.InvalidationMsgsGroup, ptr %16, i32 0, i32 1
  %18 = getelementptr inbounds [2 x i32], ptr %17, i64 0, i64 0
  %19 = load i32, ptr %18, align 4
  store i32 %19, ptr %6, align 4
  br label %20

20:                                               ; preds = %31, %11
  %21 = load i32, ptr %5, align 4
  %22 = load i32, ptr %6, align 4
  %23 = icmp slt i32 %21, %22
  br i1 %23, label %24, label %34

24:                                               ; preds = %20
  call void @llvm.lifetime.start.p0(i64 8, ptr %7) #7
  %25 = load ptr, ptr @InvalMessageArrays, align 16
  %26 = load i32, ptr %5, align 4
  %27 = sext i32 %26 to i64
  %28 = getelementptr inbounds %union.SharedInvalidationMessage, ptr %25, i64 %27
  store ptr %28, ptr %7, align 8
  %29 = load ptr, ptr %4, align 8
  %30 = load ptr, ptr %7, align 8
  call void %29(ptr noundef %30)
  call void @llvm.lifetime.end.p0(i64 8, ptr %7) #7
  br label %31

31:                                               ; preds = %24
  %32 = load i32, ptr %5, align 4
  %33 = add i32 %32, 1
  store i32 %33, ptr %5, align 4
  br label %20, !llvm.loop !11

34:                                               ; preds = %20
  call void @llvm.lifetime.end.p0(i64 4, ptr %6) #7
  call void @llvm.lifetime.end.p0(i64 4, ptr %5) #7
  br label %35

35:                                               ; preds = %34
  br label %36

36:                                               ; preds = %35
  call void @llvm.lifetime.start.p0(i64 4, ptr %8) #7
  %37 = load ptr, ptr %3, align 8
  %38 = getelementptr inbounds nuw %struct.InvalidationMsgsGroup, ptr %37, i32 0, i32 0
  %39 = getelementptr inbounds [2 x i32], ptr %38, i64 0, i64 1
  %40 = load i32, ptr %39, align 4
  store i32 %40, ptr %8, align 4
  call void @llvm.lifetime.start.p0(i64 4, ptr %9) #7
  %41 = load ptr, ptr %3, align 8
  %42 = getelementptr inbounds nuw %struct.InvalidationMsgsGroup, ptr %41, i32 0, i32 1
  %43 = getelementptr inbounds [2 x i32], ptr %42, i64 0, i64 1
  %44 = load i32, ptr %43, align 4
  store i32 %44, ptr %9, align 4
  br label %45

45:                                               ; preds = %56, %36
  %46 = load i32, ptr %8, align 4
  %47 = load i32, ptr %9, align 4
  %48 = icmp slt i32 %46, %47
  br i1 %48, label %49, label %59

49:                                               ; preds = %45
  call void @llvm.lifetime.start.p0(i64 8, ptr %10) #7
  %50 = load ptr, ptr getelementptr inbounds ([2 x %struct.InvalMessageArray], ptr @InvalMessageArrays, i64 0, i64 1), align 16
  %51 = load i32, ptr %8, align 4
  %52 = sext i32 %51 to i64
  %53 = getelementptr inbounds %union.SharedInvalidationMessage, ptr %50, i64 %52
  store ptr %53, ptr %10, align 8
  %54 = load ptr, ptr %4, align 8
  %55 = load ptr, ptr %10, align 8
  call void %54(ptr noundef %55)
  call void @llvm.lifetime.end.p0(i64 8, ptr %10) #7
  br label %56

56:                                               ; preds = %49
  %57 = load i32, ptr %8, align 4
  %58 = add i32 %57, 1
  store i32 %58, ptr %8, align 4
  br label %45, !llvm.loop !12

59:                                               ; preds = %45
  call void @llvm.lifetime.end.p0(i64 4, ptr %9) #7
  call void @llvm.lifetime.end.p0(i64 4, ptr %8) #7
  br label %60

60:                                               ; preds = %59
  ret void
}

; Function Attrs: nounwind uwtable
define internal void @ProcessInvalidationMessagesMulti(ptr noundef %0, ptr noundef %1) #0 {
  %3 = alloca ptr, align 8
  %4 = alloca ptr, align 8
  %5 = alloca i32, align 4
  %6 = alloca ptr, align 8
  %7 = alloca i32, align 4
  %8 = alloca ptr, align 8
  store ptr %0, ptr %3, align 8
  store ptr %1, ptr %4, align 8
  br label %9

9:                                                ; preds = %2
  call void @llvm.lifetime.start.p0(i64 4, ptr %5) #7
  %10 = load ptr, ptr %3, align 8
  %11 = getelementptr inbounds nuw %struct.InvalidationMsgsGroup, ptr %10, i32 0, i32 1
  %12 = getelementptr inbounds [2 x i32], ptr %11, i64 0, i64 0
  %13 = load i32, ptr %12, align 4
  %14 = load ptr, ptr %3, align 8
  %15 = getelementptr inbounds nuw %struct.InvalidationMsgsGroup, ptr %14, i32 0, i32 0
  %16 = getelementptr inbounds [2 x i32], ptr %15, i64 0, i64 0
  %17 = load i32, ptr %16, align 4
  %18 = sub i32 %13, %17
  store i32 %18, ptr %5, align 4
  %19 = load i32, ptr %5, align 4
  %20 = icmp sgt i32 %19, 0
  br i1 %20, label %21, label %32

21:                                               ; preds = %9
  call void @llvm.lifetime.start.p0(i64 8, ptr %6) #7
  %22 = load ptr, ptr @InvalMessageArrays, align 16
  %23 = load ptr, ptr %3, align 8
  %24 = getelementptr inbounds nuw %struct.InvalidationMsgsGroup, ptr %23, i32 0, i32 0
  %25 = getelementptr inbounds [2 x i32], ptr %24, i64 0, i64 0
  %26 = load i32, ptr %25, align 4
  %27 = sext i32 %26 to i64
  %28 = getelementptr inbounds %union.SharedInvalidationMessage, ptr %22, i64 %27
  store ptr %28, ptr %6, align 8
  %29 = load ptr, ptr %4, align 8
  %30 = load ptr, ptr %6, align 8
  %31 = load i32, ptr %5, align 4
  call void %29(ptr noundef %30, i32 noundef %31)
  call void @llvm.lifetime.end.p0(i64 8, ptr %6) #7
  br label %32

32:                                               ; preds = %21, %9
  call void @llvm.lifetime.end.p0(i64 4, ptr %5) #7
  br label %33

33:                                               ; preds = %32
  br label %34

34:                                               ; preds = %33
  call void @llvm.lifetime.start.p0(i64 4, ptr %7) #7
  %35 = load ptr, ptr %3, align 8
  %36 = getelementptr inbounds nuw %struct.InvalidationMsgsGroup, ptr %35, i32 0, i32 1
  %37 = getelementptr inbounds [2 x i32], ptr %36, i64 0, i64 1
  %38 = load i32, ptr %37, align 4
  %39 = load ptr, ptr %3, align 8
  %40 = getelementptr inbounds nuw %struct.InvalidationMsgsGroup, ptr %39, i32 0, i32 0
  %41 = getelementptr inbounds [2 x i32], ptr %40, i64 0, i64 1
  %42 = load i32, ptr %41, align 4
  %43 = sub i32 %38, %42
  store i32 %43, ptr %7, align 4
  %44 = load i32, ptr %7, align 4
  %45 = icmp sgt i32 %44, 0
  br i1 %45, label %46, label %57

46:                                               ; preds = %34
  call void @llvm.lifetime.start.p0(i64 8, ptr %8) #7
  %47 = load ptr, ptr getelementptr inbounds ([2 x %struct.InvalMessageArray], ptr @InvalMessageArrays, i64 0, i64 1), align 16
  %48 = load ptr, ptr %3, align 8
  %49 = getelementptr inbounds nuw %struct.InvalidationMsgsGroup, ptr %48, i32 0, i32 0
  %50 = getelementptr inbounds [2 x i32], ptr %49, i64 0, i64 1
  %51 = load i32, ptr %50, align 4
  %52 = sext i32 %51 to i64
  %53 = getelementptr inbounds %union.SharedInvalidationMessage, ptr %47, i64 %52
  store ptr %53, ptr %8, align 8
  %54 = load ptr, ptr %4, align 8
  %55 = load ptr, ptr %8, align 8
  %56 = load i32, ptr %7, align 4
  call void %54(ptr noundef %55, i32 noundef %56)
  call void @llvm.lifetime.end.p0(i64 8, ptr %8) #7
  br label %57

57:                                               ; preds = %46, %34
  call void @llvm.lifetime.end.p0(i64 4, ptr %7) #7
  br label %58

58:                                               ; preds = %57
  ret void
}

; Function Attrs: nounwind uwtable
define internal void @AppendInvalidationMessages(ptr noundef %0, ptr noundef %1) #0 {
  %3 = alloca ptr, align 8
  %4 = alloca ptr, align 8
  store ptr %0, ptr %3, align 8
  store ptr %1, ptr %4, align 8
  %5 = load ptr, ptr %3, align 8
  %6 = load ptr, ptr %4, align 8
  call void @AppendInvalidationMessageSubGroup(ptr noundef %5, ptr noundef %6, i32 noundef 0)
  %7 = load ptr, ptr %3, align 8
  %8 = load ptr, ptr %4, align 8
  call void @AppendInvalidationMessageSubGroup(ptr noundef %7, ptr noundef %8, i32 noundef 1)
  ret void
}

; Function Attrs: nounwind uwtable
define dso_local void @AtEOXact_Inval(i1 noundef zeroext %0) #0 {
  %2 = alloca i8, align 1
  %3 = zext i1 %0 to i8
  store i8 %3, ptr %2, align 1
  store ptr null, ptr @inplaceInvalInfo, align 8
  %4 = load ptr, ptr @transInvalInfo, align 8
  %5 = icmp eq ptr %4, null
  br i1 %5, label %6, label %7

6:                                                ; preds = %1
  br label %36

7:                                                ; preds = %1
  %8 = load i8, ptr %2, align 1, !range !4, !noundef !5
  %9 = trunc i8 %8 to i1
  br i1 %9, label %10, label %32

10:                                               ; preds = %7
  %11 = load ptr, ptr @transInvalInfo, align 8
  %12 = getelementptr inbounds nuw %struct.TransInvalidationInfo, ptr %11, i32 0, i32 0
  %13 = getelementptr inbounds nuw %struct.InvalidationInfo, ptr %12, i32 0, i32 1
  %14 = load i8, ptr %13, align 8, !range !4, !noundef !5
  %15 = trunc i8 %14 to i1
  br i1 %15, label %16, label %17

16:                                               ; preds = %10
  call void @RelationCacheInitFilePreInvalidate()
  br label %17

17:                                               ; preds = %16, %10
  %18 = load ptr, ptr @transInvalInfo, align 8
  %19 = getelementptr inbounds nuw %struct.TransInvalidationInfo, ptr %18, i32 0, i32 1
  %20 = load ptr, ptr @transInvalInfo, align 8
  %21 = getelementptr inbounds nuw %struct.TransInvalidationInfo, ptr %20, i32 0, i32 0
  %22 = getelementptr inbounds nuw %struct.InvalidationInfo, ptr %21, i32 0, i32 0
  call void @AppendInvalidationMessages(ptr noundef %19, ptr noundef %22)
  %23 = load ptr, ptr @transInvalInfo, align 8
  %24 = getelementptr inbounds nuw %struct.TransInvalidationInfo, ptr %23, i32 0, i32 1
  call void @ProcessInvalidationMessagesMulti(ptr noundef %24, ptr noundef @SendSharedInvalidMessages)
  %25 = load ptr, ptr @transInvalInfo, align 8
  %26 = getelementptr inbounds nuw %struct.TransInvalidationInfo, ptr %25, i32 0, i32 0
  %27 = getelementptr inbounds nuw %struct.InvalidationInfo, ptr %26, i32 0, i32 1
  %28 = load i8, ptr %27, align 8, !range !4, !noundef !5
  %29 = trunc i8 %28 to i1
  br i1 %29, label %30, label %31

30:                                               ; preds = %17
  call void @RelationCacheInitFilePostInvalidate()
  br label %31

31:                                               ; preds = %30, %17
  br label %35

32:                                               ; preds = %7
  %33 = load ptr, ptr @transInvalInfo, align 8
  %34 = getelementptr inbounds nuw %struct.TransInvalidationInfo, ptr %33, i32 0, i32 1
  call void @ProcessInvalidationMessages(ptr noundef %34, ptr noundef @LocalExecuteInvalidationMessage)
  br label %35

35:                                               ; preds = %32, %31
  store ptr null, ptr @transInvalInfo, align 8
  br label %36

36:                                               ; preds = %35, %6
  ret void
}