; Function Attrs: nounwind uwtable
define dso_local void @AtEOXact_Inval(i1 noundef zeroext %0) local_unnamed_addr #0 {
  store ptr null, ptr @inplaceInvalInfo, align 8
  %2 = load ptr, ptr @transInvalInfo, align 8
  %3 = icmp eq ptr %2, null
  br i1 %3, label %59, label %4

4:                                                ; preds = %1
  br i1 %0, label %5, label %42

5:                                                ; preds = %4
  %6 = getelementptr inbounds nuw i8, ptr %2, i64 16
  %7 = load i8, ptr %6, align 8, !range !11, !noundef !12
  %8 = trunc nuw i8 %7 to i1
  br i1 %8, label %9, label %10

9:                                                ; preds = %5
  tail call void @RelationCacheInitFilePreInvalidate() #7
  %.pre = load ptr, ptr @transInvalInfo, align 8
  br label %10

10:                                               ; preds = %9, %5
  %11 = phi ptr [ %.pre, %9 ], [ %2, %5 ]
  %12 = getelementptr inbounds nuw i8, ptr %11, i64 20
  %13 = getelementptr inbounds nuw i8, ptr %11, i64 8
  %14 = load i32, ptr %13, align 4
  %15 = getelementptr inbounds nuw i8, ptr %11, i64 28
  store i32 %14, ptr %15, align 4
  store i32 %14, ptr %11, align 4
  %16 = getelementptr inbounds nuw i8, ptr %11, i64 12
  %17 = load i32, ptr %16, align 4
  %18 = getelementptr inbounds nuw i8, ptr %11, i64 32
  store i32 %17, ptr %18, align 4
  %19 = getelementptr inbounds nuw i8, ptr %11, i64 4
  store i32 %17, ptr %19, align 4
  %20 = load i32, ptr %12, align 4
  %21 = sub i32 %14, %20
  %22 = icmp sgt i32 %21, 0
  br i1 %22, label %23, label %27

23:                                               ; preds = %10
  %24 = load ptr, ptr @InvalMessageArrays.0, align 16
  %25 = sext i32 %20 to i64
  %26 = getelementptr inbounds %union.SharedInvalidationMessage, ptr %24, i64 %25
  tail call void @SendSharedInvalidMessages(ptr noundef %26, i32 noundef %21) #7
  %.pre1 = load i32, ptr %18, align 4
  br label %27

27:                                               ; preds = %23, %10
  %28 = phi i32 [ %.pre1, %23 ], [ %17, %10 ]
  %29 = getelementptr inbounds nuw i8, ptr %11, i64 24
  %30 = load i32, ptr %29, align 4
  %31 = sub i32 %28, %30
  %32 = icmp sgt i32 %31, 0
  br i1 %32, label %33, label %ProcessInvalidationMessagesMulti.exit

33:                                               ; preds = %27
  %34 = load ptr, ptr @InvalMessageArrays.2, align 16
  %35 = sext i32 %30 to i64
  %36 = getelementptr inbounds %union.SharedInvalidationMessage, ptr %34, i64 %35
  tail call void @SendSharedInvalidMessages(ptr noundef %36, i32 noundef %31) #7
  br label %ProcessInvalidationMessagesMulti.exit

ProcessInvalidationMessagesMulti.exit:            ; preds = %27, %33
  %37 = load ptr, ptr @transInvalInfo, align 8
  %38 = getelementptr inbounds nuw i8, ptr %37, i64 16
  %39 = load i8, ptr %38, align 8, !range !11, !noundef !12
  %40 = trunc nuw i8 %39 to i1
  br i1 %40, label %41, label %ProcessInvalidationMessages.exit

41:                                               ; preds = %ProcessInvalidationMessagesMulti.exit
  tail call void @RelationCacheInitFilePostInvalidate() #7
  br label %ProcessInvalidationMessages.exit

42:                                               ; preds = %4
  %43 = getelementptr inbounds nuw i8, ptr %2, i64 20
  %44 = load i32, ptr %43, align 4
  %45 = getelementptr inbounds nuw i8, ptr %2, i64 28
  %46 = load i32, ptr %45, align 4
  %47 = icmp slt i32 %44, %46
  br i1 %47, label %.lr.ph.preheader.i, label %._crit_edge.i

.lr.ph.preheader.i:                               ; preds = %42
  %48 = sext i32 %44 to i64
  br label %.lr.ph.i

.lr.ph.i:                                         ; preds = %.lr.ph.i, %.lr.ph.preheader.i
  %indvars.iv.i = phi i64 [ %48, %.lr.ph.preheader.i ], [ %indvars.iv.next.i, %.lr.ph.i ]
  %49 = load ptr, ptr @InvalMessageArrays.0, align 16
  %50 = getelementptr inbounds %union.SharedInvalidationMessage, ptr %49, i64 %indvars.iv.i
  tail call void @LocalExecuteInvalidationMessage(ptr noundef %50)
  %indvars.iv.next.i = add nsw i64 %indvars.iv.i, 1
  %lftr.wideiv.i = trunc i64 %indvars.iv.next.i to i32
  %exitcond.not.i = icmp eq i32 %46, %lftr.wideiv.i
  br i1 %exitcond.not.i, label %._crit_edge.i, label %.lr.ph.i, !llvm.loop !9

._crit_edge.i:                                    ; preds = %.lr.ph.i, %42
  %51 = getelementptr inbounds nuw i8, ptr %2, i64 24
  %52 = load i32, ptr %51, align 4
  %53 = getelementptr inbounds nuw i8, ptr %2, i64 32
  %54 = load i32, ptr %53, align 4
  %55 = icmp slt i32 %52, %54
  br i1 %55, label %.lr.ph4.preheader.i, label %ProcessInvalidationMessages.exit

.lr.ph4.preheader.i:                              ; preds = %._crit_edge.i
  %56 = sext i32 %52 to i64
  br label %.lr.ph4.i

.lr.ph4.i:                                        ; preds = %.lr.ph4.i, %.lr.ph4.preheader.i
  %indvars.iv7.i = phi i64 [ %56, %.lr.ph4.preheader.i ], [ %indvars.iv.next8.i, %.lr.ph4.i ]
  %57 = load ptr, ptr @InvalMessageArrays.2, align 16
  %58 = getelementptr inbounds %union.SharedInvalidationMessage, ptr %57, i64 %indvars.iv7.i
  tail call void @LocalExecuteInvalidationMessage(ptr noundef %58)
  %indvars.iv.next8.i = add nsw i64 %indvars.iv7.i, 1
  %lftr.wideiv10.i = trunc i64 %indvars.iv.next8.i to i32
  %exitcond11.not.i = icmp eq i32 %54, %lftr.wideiv10.i
  br i1 %exitcond11.not.i, label %ProcessInvalidationMessages.exit, label %.lr.ph4.i, !llvm.loop !10

ProcessInvalidationMessages.exit:                 ; preds = %.lr.ph4.i, %._crit_edge.i, %ProcessInvalidationMessagesMulti.exit, %41
  store ptr null, ptr @transInvalInfo, align 8
  br label %59

59:                                               ; preds = %1, %ProcessInvalidationMessages.exit
  ret void
}